target datalayout = "e-m:e-p270:32:32-p271:32:32-p272:64:64-i64:64-i128:128-f80:128-n8:16:32:64-S128"
target triple = "x86_64-pc-linux-gnu"

; Function Attrs: mustprogress nounwind uwtable
define noundef i32 @_ZN6Square11CornerIndexEii(i32 noundef %0, i32 noundef %1) #1 align 2 {
  %3 = alloca i32, align 4
  %4 = alloca i32, align 4
  store i32 %0, ptr %3, align 4
  store i32 %1, ptr %4, align 4
  %5 = load i32, ptr %4, align 4
  %6 = shl i32 %5, 1
  %7 = load i32, ptr %3, align 4
  %8 = or i32 %6, %7
  ret i32 %8
}

; Function Attrs: mustprogress nounwind uwtable
define void @_ZN6Square15FactorEdgeIndexEiRiS0_(i32 noundef %0, ptr noundef nonnull align 4 dereferenceable(4) %1, ptr noundef nonnull align 4 dereferenceable(4) %2) #1 align 2 {
  %4 = alloca i32, align 4
  %5 = alloca ptr, align 8
  %6 = alloca ptr, align 8
  store i32 %0, ptr %4, align 4
  store ptr %1, ptr %5, align 8
  store ptr %2, ptr %6, align 8
  %7 = load i32, ptr %4, align 4
  switch i32 %7, label %20 [
    i32 0, label %8
    i32 2, label %8
    i32 1, label %13
    i32 3, label %13
  ]

8:                                                ; preds = %3, %3
  %9 = load ptr, ptr %5, align 8
  store i32 0, ptr %9, align 4
  %10 = load i32, ptr %4, align 4
  %11 = sdiv i32 %10, 2
  %12 = load ptr, ptr %6, align 8
  store i32 %11, ptr %12, align 4
  br label %20

13:                                               ; preds = %3, %3
  %14 = load ptr, ptr %5, align 8
  store i32 1, ptr %14, align 4
  %15 = load i32, ptr %4, align 4
  %16 = sdiv i32 %15, 2
  %17 = add nsw i32 %16, 1
  %18 = srem i32 %17, 2
  %19 = load ptr, ptr %6, align 8
  store i32 %18, ptr %19, align 4
  br label %20

20:                                               ; preds = %13, %8, %3
  ret void
}

; Function Attrs: mustprogress nounwind uwtable
define void @_ZN6Square11EdgeCornersEiRiS0_(i32 noundef %0, ptr noundef nonnull align 4 dereferenceable(4) %1, ptr noundef nonnull align 4 dereferenceable(4) %2) #1 align 2 {
  %4 = alloca i32, align 4
  %5 = alloca ptr, align 8
  %6 = alloca ptr, align 8
  %7 = alloca i32, align 4
  %8 = alloca i32, align 4
  store i32 %0, ptr %4, align 4
  store ptr %1, ptr %5, align 8
  store ptr %2, ptr %6, align 8
  %9 = load i32, ptr %4, align 4
  call void @_ZN6Square15FactorEdgeIndexEiRiS0_(i32 noundef %9, ptr noundef nonnull align 4 dereferenceable(4) %7, ptr noundef nonnull align 4 dereferenceable(4) %8)
  %10 = load i32, ptr %7, align 4
  switch i32 %10, label %25 [
    i32 0, label %11
    i32 1, label %18
  ]

11:                                               ; preds = %3
  %12 = load i32, ptr %8, align 4
  %13 = call noundef i32 @_ZN6Square11CornerIndexEii(i32 noundef 0, i32 noundef %12)
  %14 = load ptr, ptr %5, align 8
  store i32 %13, ptr %14, align 4
  %15 = load i32, ptr %8, align 4
  %16 = call noundef i32 @_ZN6Square11CornerIndexEii(i32 noundef 1, i32 noundef %15)
  %17 = load ptr, ptr %6, align 8
  store i32 %16, ptr %17, align 4
  br label %25

18:                                               ; preds = %3
  %19 = load i32, ptr %8, align 4
  %20 = call noundef i32 @_ZN6Square11CornerIndexEii(i32 noundef %19, i32 noundef 0)
  %21 = load ptr, ptr %5, align 8
  store i32 %20, ptr %21, align 4
  %22 = load i32, ptr %8, align 4
  %23 = call noundef i32 @_ZN6Square11CornerIndexEii(i32 noundef %22, i32 noundef 1)
  %24 = load ptr, ptr %6, align 8
  store i32 %23, ptr %24, align 4
  br label %25

25:                                               ; preds = %18, %11, %3
  ret void
}