; Function Attrs: mustprogress nofree norecurse nosync nounwind willreturn memory(argmem: write) uwtable
define void @_ZN6Square11EdgeCornersEiRiS0_(i32 noundef %0, ptr noundef nonnull writeonly align 4 captures(none) dereferenceable(4) initializes((0, 4)) %1, ptr noundef nonnull writeonly align 4 captures(none) dereferenceable(4) initializes((0, 4)) %2) local_unnamed_addr #1 align 2 {
  switch i32 %0, label %_ZN6Square15FactorEdgeIndexEiRiS0_.exit.thread [
    i32 0, label %_ZN6Square15FactorEdgeIndexEiRiS0_.exit.thread12
    i32 2, label %_ZN6Square15FactorEdgeIndexEiRiS0_.exit.thread12
    i32 1, label %6
    i32 3, label %6
  ]

_ZN6Square15FactorEdgeIndexEiRiS0_.exit.thread12: ; preds = %3, %3
  %.cmp.i.inv = icmp samesign ult i32 %0, 2
  %4 = select i1 %.cmp.i.inv, i32 0, i32 2
  br label %_ZN6Square15FactorEdgeIndexEiRiS0_.exit.thread

_ZN6Square15FactorEdgeIndexEiRiS0_.exit.thread:   ; preds = %3, %_ZN6Square15FactorEdgeIndexEiRiS0_.exit.thread12
  %.011 = phi i32 [ %4, %_ZN6Square15FactorEdgeIndexEiRiS0_.exit.thread12 ], [ 0, %3 ]
  store i32 %.011, ptr %1, align 4
  %5 = or disjoint i32 %.011, 1
  br label %9

6:                                                ; preds = %3, %3
  %.cmp6.i = icmp samesign ult i32 %0, 2
  %7 = zext i1 %.cmp6.i to i32
  store i32 %7, ptr %1, align 4
  %8 = or disjoint i32 %7, 2
  br label %9

9:                                                ; preds = %6, %_ZN6Square15FactorEdgeIndexEiRiS0_.exit.thread
  %storemerge = phi i32 [ %8, %6 ], [ %5, %_ZN6Square15FactorEdgeIndexEiRiS0_.exit.thread ]
  store i32 %storemerge, ptr %2, align 4
  ret void
}